; Function Attrs: nounwind uwtable
define internal void @fn_exec_fl(ptr noundef %0, i32 noundef %1, i64 noundef %2, i32 noundef %3, ptr noundef %4, ptr noundef %5) #0 {
  %7 = alloca i64, align 8
  %8 = alloca %struct.strbuf, align 8
  store i64 %2, ptr %7, align 8, !tbaa !9
  call void @llvm.lifetime.start.p0(i64 24, ptr nonnull %8) #7
  call void @llvm.memcpy.p0.p0.i64(ptr noundef nonnull align 8 dereferenceable(24) %8, ptr noundef nonnull align 8 dereferenceable(24) @__const.fn_counter.buf_payload, i64 24, i1 false)
  call void (ptr, ptr, ...) @strbuf_addf(ptr noundef nonnull %8, ptr noundef nonnull @.str.45, i32 noundef %3) #7
  call void @strbuf_add(ptr noundef nonnull %8, ptr noundef nonnull @.str.46, i64 noundef 6) #7
  %.not = icmp eq ptr %4, null
  br i1 %.not, label %24, label %9

9:                                                ; preds = %6
  %10 = call i64 @strlen(ptr noundef nonnull dereferenceable(1) %4) #8
  call void @strbuf_add(ptr noundef nonnull %8, ptr noundef nonnull %4, i64 noundef %10) #7
  %11 = load ptr, ptr %5, align 8, !tbaa !26
  %.not7 = icmp eq ptr %11, null
  br i1 %.not7, label %24, label %12

12:                                               ; preds = %9
  %13 = load i64, ptr %8, align 8, !tbaa !11
  %.not.i.i = icmp eq i64 %13, 0
  br i1 %.not.i.i, label %strbuf_avail.exit.thread.i, label %strbuf_avail.exit.i

strbuf_avail.exit.i:                              ; preds = %12
  %14 = getelementptr inbounds nuw i8, ptr %8, i64 8
  %15 = load i64, ptr %14, align 8, !tbaa !15
  %.neg.i = add i64 %15, 1
  %.not.i = icmp eq i64 %13, %.neg.i
  br i1 %.not.i, label %strbuf_avail.exit.thread.i, label %strbuf_addch.exit

strbuf_avail.exit.thread.i:                       ; preds = %strbuf_avail.exit.i, %12
  call void @strbuf_grow(ptr noundef nonnull %8, i64 noundef 1) #7
  %.phi.trans.insert.i = getelementptr inbounds nuw i8, ptr %8, i64 8
  %.pre.i = load i64, ptr %.phi.trans.insert.i, align 8, !tbaa !15
  %.pre7.i = add i64 %.pre.i, 1
  br label %strbuf_addch.exit

strbuf_addch.exit:                                ; preds = %strbuf_avail.exit.i, %strbuf_avail.exit.thread.i
  %.pre-phi.i = phi i64 [ %.pre7.i, %strbuf_avail.exit.thread.i ], [ %.neg.i, %strbuf_avail.exit.i ]
  %16 = phi i64 [ %.pre.i, %strbuf_avail.exit.thread.i ], [ %15, %strbuf_avail.exit.i ]
  %17 = getelementptr inbounds nuw i8, ptr %8, i64 16
  %18 = load ptr, ptr %17, align 8, !tbaa !16
  %19 = getelementptr inbounds nuw i8, ptr %8, i64 8
  store i64 %.pre-phi.i, ptr %19, align 8, !tbaa !15
  %20 = getelementptr inbounds nuw i8, ptr %18, i64 %16
  store i8 32, ptr %20, align 1, !tbaa !4
  %21 = load ptr, ptr %17, align 8, !tbaa !16
  %22 = load i64, ptr %19, align 8, !tbaa !15
  %23 = getelementptr inbounds nuw i8, ptr %21, i64 %22
  store i8 0, ptr %23, align 1, !tbaa !4
  br label %24

24:                                               ; preds = %9, %strbuf_addch.exit, %6
  call void @sq_append_quote_argv_pretty(ptr noundef nonnull %8, ptr noundef %5) #7
  %25 = load i64, ptr %8, align 8, !tbaa !11
  %.not.i.i8 = icmp eq i64 %25, 0
  br i1 %.not.i.i8, label %strbuf_avail.exit.thread.i13, label %strbuf_avail.exit.i9

strbuf_avail.exit.i9:                             ; preds = %24
  %26 = getelementptr inbounds nuw i8, ptr %8, i64 8
  %27 = load i64, ptr %26, align 8, !tbaa !15
  %.neg.i10 = add i64 %27, 1
  %.not.i11 = icmp eq i64 %25, %.neg.i10
  br i1 %.not.i11, label %strbuf_avail.exit.thread.i13, label %strbuf_addch.exit17

strbuf_avail.exit.thread.i13:                     ; preds = %strbuf_avail.exit.i9, %24
  call void @strbuf_grow(ptr noundef nonnull %8, i64 noundef 1) #7
  %.phi.trans.insert.i14 = getelementptr inbounds nuw i8, ptr %8, i64 8
  %.pre.i15 = load i64, ptr %.phi.trans.insert.i14, align 8, !tbaa !15
  %.pre7.i16 = add i64 %.pre.i15, 1
  br label %strbuf_addch.exit17

strbuf_addch.exit17:                              ; preds = %strbuf_avail.exit.i9, %strbuf_avail.exit.thread.i13
  %.pre-phi.i12 = phi i64 [ %.pre7.i16, %strbuf_avail.exit.thread.i13 ], [ %.neg.i10, %strbuf_avail.exit.i9 ]
  %28 = phi i64 [ %.pre.i15, %strbuf_avail.exit.thread.i13 ], [ %27, %strbuf_avail.exit.i9 ]
  %29 = getelementptr inbounds nuw i8, ptr %8, i64 16
  %30 = load ptr, ptr %29, align 8, !tbaa !16
  %31 = getelementptr inbounds nuw i8, ptr %8, i64 8
  store i64 %.pre-phi.i12, ptr %31, align 8, !tbaa !15
  %32 = getelementptr inbounds nuw i8, ptr %30, i64 %28
  store i8 93, ptr %32, align 1, !tbaa !4
  %33 = load ptr, ptr %29, align 8, !tbaa !16
  %34 = load i64, ptr %31, align 8, !tbaa !15
  %35 = getelementptr inbounds nuw i8, ptr %33, i64 %34
  store i8 0, ptr %35, align 1, !tbaa !4
  call fastcc void @perf_io_write_fl(ptr noundef %0, i32 noundef %1, ptr noundef nonnull @.str.44, ptr noundef null, ptr noundef nonnull %7, ptr noundef null, ptr noundef null, ptr noundef %8)
  call void @strbuf_release(ptr noundef nonnull %8) #7
  call void @llvm.lifetime.end.p0(i64 24, ptr nonnull %8) #7
  ret void
}